target datalayout = "e-m:e-p270:32:32-p271:32:32-p272:64:64-i64:64-i128:128-f80:128-n8:16:32:64-S128"
target triple = "x86_64-pc-linux-gnu"

%struct.SC_Lib_ = type { ptr, ptr, ptr, ptr, float, i32, float, i32, %struct.Vec_Ptr_t_, %struct.Vec_Ptr_t_, %struct.Vec_Ptr_t_, %struct.Vec_Ptr_t_, %struct.Vec_Ptr_t_, ptr, i32 }
%struct.Vec_Ptr_t_ = type { i32, i32, ptr }
%struct.Vec_Str_t_ = type { i32, i32, ptr }

@.str = private unnamed_addr constant [3 x i8] c"rb\00", align 1
@.str.1 = private unnamed_addr constant [36 x i8] c"Cannot open file \22%s\22 for reading.\0A\00", align 1

; Function Attrs: inlinehint nounwind uwtable
define internal void @Vec_StrFree(ptr noundef %0) #3 {
  %2 = alloca ptr, align 8
  store ptr %0, ptr %2, align 8, !tbaa !76
  %3 = load ptr, ptr %2, align 8, !tbaa !76
  %4 = getelementptr inbounds nuw %struct.Vec_Str_t_, ptr %3, i32 0, i32 2
  %5 = load ptr, ptr %4, align 8, !tbaa !113
  %6 = icmp ne ptr %5, null
  br i1 %6, label %7, label %13

7:                                                ; preds = %1
  %8 = load ptr, ptr %2, align 8, !tbaa !76
  %9 = getelementptr inbounds nuw %struct.Vec_Str_t_, ptr %8, i32 0, i32 2
  %10 = load ptr, ptr %9, align 8, !tbaa !113
  call void @free(ptr noundef %10) #11
  %11 = load ptr, ptr %2, align 8, !tbaa !76
  %12 = getelementptr inbounds nuw %struct.Vec_Str_t_, ptr %11, i32 0, i32 2
  store ptr null, ptr %12, align 8, !tbaa !113
  br label %14

13:                                               ; preds = %1
  br label %14

14:                                               ; preds = %13, %7
  %15 = load ptr, ptr %2, align 8, !tbaa !76
  %16 = icmp ne ptr %15, null
  br i1 %16, label %17, label %19

17:                                               ; preds = %14
  %18 = load ptr, ptr %2, align 8, !tbaa !76
  call void @free(ptr noundef %18) #11
  store ptr null, ptr %2, align 8, !tbaa !76
  br label %20

19:                                               ; preds = %14
  br label %20

20:                                               ; preds = %19, %17
  ret void
}

; Function Attrs: inlinehint nounwind uwtable
define internal ptr @Abc_UtilStrsav(ptr noundef %0) #3 {
  %2 = alloca ptr, align 8
  store ptr %0, ptr %2, align 8, !tbaa !106
  %3 = load ptr, ptr %2, align 8, !tbaa !106
  %4 = icmp ne ptr %3, null
  br i1 %4, label %5, label %13

5:                                                ; preds = %1
  %6 = load ptr, ptr %2, align 8, !tbaa !106
  %7 = call i64 @strlen(ptr noundef %6) #13
  %8 = add i64 %7, 1
  %9 = mul i64 1, %8
  %10 = call noalias ptr @malloc(i64 noundef %9) #12
  %11 = load ptr, ptr %2, align 8, !tbaa !106
  %12 = call ptr @strcpy(ptr noundef %10, ptr noundef %11) #11
  br label %14

13:                                               ; preds = %1
  br label %14

14:                                               ; preds = %13, %5
  %15 = phi ptr [ %12, %5 ], [ null, %13 ]
  ret ptr %15
}

; Function Attrs: inlinehint nounwind uwtable
define internal i32 @Vec_StrSize(ptr noundef %0) #3 {
  %2 = alloca ptr, align 8
  store ptr %0, ptr %2, align 8, !tbaa !76
  %3 = load ptr, ptr %2, align 8, !tbaa !76
  %4 = getelementptr inbounds nuw %struct.Vec_Str_t_, ptr %3, i32 0, i32 1
  %5 = load i32, ptr %4, align 4, !tbaa !111
  ret i32 %5
}

; Function Attrs: inlinehint nounwind uwtable
define internal ptr @Vec_StrArray(ptr noundef %0) #3 {
  %2 = alloca ptr, align 8
  store ptr %0, ptr %2, align 8, !tbaa !76
  %3 = load ptr, ptr %2, align 8, !tbaa !76
  %4 = getelementptr inbounds nuw %struct.Vec_Str_t_, ptr %3, i32 0, i32 2
  %5 = load ptr, ptr %4, align 8, !tbaa !113
  ret ptr %5
}

; Function Attrs: inlinehint nounwind uwtable
define internal ptr @Vec_StrAlloc(i32 noundef %0) #3 {
  %2 = alloca i32, align 4
  %3 = alloca ptr, align 8
  store i32 %0, ptr %2, align 4, !tbaa !53
  call void @llvm.lifetime.start.p0(i64 8, ptr %3) #11
  %4 = call noalias ptr @malloc(i64 noundef 16) #12
  store ptr %4, ptr %3, align 8, !tbaa !76
  %5 = load i32, ptr %2, align 4, !tbaa !53
  %6 = icmp sgt i32 %5, 0
  br i1 %6, label %7, label %11

7:                                                ; preds = %1
  %8 = load i32, ptr %2, align 4, !tbaa !53
  %9 = icmp slt i32 %8, 16
  br i1 %9, label %10, label %11

10:                                               ; preds = %7
  store i32 16, ptr %2, align 4, !tbaa !53
  br label %11

11:                                               ; preds = %10, %7, %1
  %12 = load ptr, ptr %3, align 8, !tbaa !76
  %13 = getelementptr inbounds nuw %struct.Vec_Str_t_, ptr %12, i32 0, i32 1
  store i32 0, ptr %13, align 4, !tbaa !111
  %14 = load i32, ptr %2, align 4, !tbaa !53
  %15 = load ptr, ptr %3, align 8, !tbaa !76
  %16 = getelementptr inbounds nuw %struct.Vec_Str_t_, ptr %15, i32 0, i32 0
  store i32 %14, ptr %16, align 8, !tbaa !109
  %17 = load ptr, ptr %3, align 8, !tbaa !76
  %18 = getelementptr inbounds nuw %struct.Vec_Str_t_, ptr %17, i32 0, i32 0
  %19 = load i32, ptr %18, align 8, !tbaa !109
  %20 = icmp ne i32 %19, 0
  br i1 %20, label %21, label %28

21:                                               ; preds = %11
  %22 = load ptr, ptr %3, align 8, !tbaa !76
  %23 = getelementptr inbounds nuw %struct.Vec_Str_t_, ptr %22, i32 0, i32 0
  %24 = load i32, ptr %23, align 8, !tbaa !109
  %25 = sext i32 %24 to i64
  %26 = mul i64 1, %25
  %27 = call noalias ptr @malloc(i64 noundef %26) #12
  br label %29

28:                                               ; preds = %11
  br label %29

29:                                               ; preds = %28, %21
  %30 = phi ptr [ %27, %21 ], [ null, %28 ]
  %31 = load ptr, ptr %3, align 8, !tbaa !76
  %32 = getelementptr inbounds nuw %struct.Vec_Str_t_, ptr %31, i32 0, i32 2
  store ptr %30, ptr %32, align 8, !tbaa !113
  %33 = load ptr, ptr %3, align 8, !tbaa !76
  call void @llvm.lifetime.end.p0(i64 8, ptr %3) #11
  ret ptr %33
}

; Function Attrs: nounwind uwtable
define ptr @Abc_SclReadFromFile(ptr noundef %0) #0 {
  %2 = alloca ptr, align 8
  %3 = alloca ptr, align 8
  %4 = alloca ptr, align 8
  %5 = alloca ptr, align 8
  %6 = alloca ptr, align 8
  %7 = alloca i32, align 4
  %8 = alloca i32, align 4
  store ptr %0, ptr %3, align 8, !tbaa !106
  call void @llvm.lifetime.start.p0(i64 8, ptr %4) #11
  call void @llvm.lifetime.start.p0(i64 8, ptr %5) #11
  call void @llvm.lifetime.start.p0(i64 8, ptr %6) #11
  call void @llvm.lifetime.start.p0(i64 4, ptr %7) #11
  %9 = load ptr, ptr %3, align 8, !tbaa !106
  %10 = call noalias ptr @fopen(ptr noundef %9, ptr noundef @.str)
  store ptr %10, ptr %5, align 8, !tbaa !107
  %11 = load ptr, ptr %5, align 8, !tbaa !107
  %12 = icmp eq ptr %11, null
  br i1 %12, label %13, label %16

13:                                               ; preds = %1
  %14 = load ptr, ptr %3, align 8, !tbaa !106
  %15 = call i32 (ptr, ...) @printf(ptr noundef @.str.1, ptr noundef %14)
  store ptr null, ptr %2, align 8
  store i32 1, ptr %8, align 4
  br label %57

16:                                               ; preds = %1
  %17 = load ptr, ptr %5, align 8, !tbaa !107
  %18 = call i32 @fseek(ptr noundef %17, i64 noundef 0, i32 noundef 2)
  %19 = load ptr, ptr %5, align 8, !tbaa !107
  %20 = call i64 @ftell(ptr noundef %19)
  %21 = trunc i64 %20 to i32
  store i32 %21, ptr %7, align 4, !tbaa !53
  %22 = load ptr, ptr %5, align 8, !tbaa !107
  call void @rewind(ptr noundef %22)
  %23 = load i32, ptr %7, align 4, !tbaa !53
  %24 = call ptr @Vec_StrAlloc(i32 noundef %23)
  store ptr %24, ptr %6, align 8, !tbaa !76
  %25 = load ptr, ptr %6, align 8, !tbaa !76
  %26 = getelementptr inbounds nuw %struct.Vec_Str_t_, ptr %25, i32 0, i32 0
  %27 = load i32, ptr %26, align 8, !tbaa !109
  %28 = load ptr, ptr %6, align 8, !tbaa !76
  %29 = getelementptr inbounds nuw %struct.Vec_Str_t_, ptr %28, i32 0, i32 1
  store i32 %27, ptr %29, align 4, !tbaa !111
  %30 = load ptr, ptr %6, align 8, !tbaa !76
  %31 = call ptr @Vec_StrArray(ptr noundef %30)
  %32 = load ptr, ptr %6, align 8, !tbaa !76
  %33 = call i32 @Vec_StrSize(ptr noundef %32)
  %34 = sext i32 %33 to i64
  %35 = load ptr, ptr %5, align 8, !tbaa !107
  %36 = call i64 @fread(ptr noundef %31, i64 noundef 1, i64 noundef %34, ptr noundef %35)
  %37 = trunc i64 %36 to i32
  store i32 %37, ptr %7, align 4, !tbaa !53
  %38 = load ptr, ptr %5, align 8, !tbaa !107
  %39 = call i32 @fclose(ptr noundef %38)
  %40 = load ptr, ptr %6, align 8, !tbaa !76
  %41 = call ptr @Abc_SclReadFromStr(ptr noundef %40)
  store ptr %41, ptr %4, align 8, !tbaa !9
  %42 = load ptr, ptr %4, align 8, !tbaa !9
  %43 = icmp ne ptr %42, null
  br i1 %43, label %44, label %49

44:                                               ; preds = %16
  %45 = load ptr, ptr %3, align 8, !tbaa !106
  %46 = call ptr @Abc_UtilStrsav(ptr noundef %45)
  %47 = load ptr, ptr %4, align 8, !tbaa !9
  %48 = getelementptr inbounds nuw %struct.SC_Lib_, ptr %47, i32 0, i32 1
  store ptr %46, ptr %48, align 8, !tbaa !112
  br label %49

49:                                               ; preds = %44, %16
  %50 = load ptr, ptr %4, align 8, !tbaa !9
  %51 = icmp ne ptr %50, null
  br i1 %51, label %52, label %54

52:                                               ; preds = %49
  %53 = load ptr, ptr %4, align 8, !tbaa !9
  call void @Abc_SclLibNormalize(ptr noundef %53)
  br label %54

54:                                               ; preds = %52, %49
  %55 = load ptr, ptr %6, align 8, !tbaa !76
  call void @Vec_StrFree(ptr noundef %55)
  %56 = load ptr, ptr %4, align 8, !tbaa !9
  store ptr %56, ptr %2, align 8
  store i32 1, ptr %8, align 4
  br label %57

57:                                               ; preds = %54, %13
  call void @llvm.lifetime.end.p0(i64 4, ptr %7) #11
  call void @llvm.lifetime.end.p0(i64 8, ptr %6) #11
  call void @llvm.lifetime.end.p0(i64 8, ptr %5) #11
  call void @llvm.lifetime.end.p0(i64 8, ptr %4) #11
  %58 = load ptr, ptr %2, align 8
  ret ptr %58
}