; Function Attrs: nounwind uwtable
define noundef ptr @Abc_SclReadFromFile(ptr noundef %0) local_unnamed_addr #0 {
  %2 = tail call noalias ptr @fopen(ptr noundef %0, ptr noundef nonnull @.str)
  %3 = icmp eq ptr %2, null
  br i1 %3, label %4, label %6

4:                                                ; preds = %1
  %5 = tail call i32 (ptr, ...) @printf(ptr noundef nonnull dereferenceable(1) @.str.1, ptr noundef %0)
  br label %30

6:                                                ; preds = %1
  %7 = tail call i32 @fseek(ptr noundef nonnull %2, i64 noundef 0, i32 noundef 2)
  %8 = tail call i64 @ftell(ptr noundef nonnull %2)
  %9 = trunc i64 %8 to i32
  tail call void @rewind(ptr noundef nonnull %2)
  %10 = tail call noalias dereferenceable_or_null(16) ptr @malloc(i64 noundef 16) #21
  %11 = add i32 %9, -1
  %or.cond.i = icmp ult i32 %11, 15
  %spec.store.select.i = select i1 %or.cond.i, i32 16, i32 %9
  %12 = getelementptr inbounds nuw i8, ptr %10, i64 4
  store i32 %spec.store.select.i, ptr %10, align 8, !tbaa !97
  %.not.i = icmp eq i32 %spec.store.select.i, 0
  br i1 %.not.i, label %Vec_StrAlloc.exit, label %13

13:                                               ; preds = %6
  %14 = sext i32 %spec.store.select.i to i64
  %15 = tail call noalias ptr @malloc(i64 noundef %14) #21
  br label %Vec_StrAlloc.exit

Vec_StrAlloc.exit:                                ; preds = %6, %13
  %.pre-phi = phi i64 [ %14, %13 ], [ 0, %6 ]
  %16 = phi ptr [ %15, %13 ], [ null, %6 ]
  %17 = getelementptr inbounds nuw i8, ptr %10, i64 8
  store ptr %16, ptr %17, align 8, !tbaa !59
  store i32 %spec.store.select.i, ptr %12, align 4, !tbaa !98
  %18 = tail call i64 @fread(ptr noundef %16, i64 noundef 1, i64 noundef %.pre-phi, ptr noundef nonnull %2)
  %19 = tail call i32 @fclose(ptr noundef nonnull %2)
  %20 = tail call ptr @Abc_SclReadFromStr(ptr noundef nonnull %10)
  %.not = icmp eq ptr %20, null
  br i1 %.not, label %.critedge, label %21

21:                                               ; preds = %Vec_StrAlloc.exit
  %.not.i24 = icmp eq ptr %0, null
  br i1 %.not.i24, label %Abc_UtilStrsav.exit, label %22

22:                                               ; preds = %21
  %23 = tail call i64 @strlen(ptr noundef nonnull readonly dereferenceable(1) %0) #20
  %24 = add i64 %23, 1
  %25 = tail call noalias ptr @malloc(i64 noundef %24) #21
  %26 = tail call ptr @strcpy(ptr noundef nonnull dereferenceable(1) %25, ptr noundef nonnull readonly dereferenceable(1) %0) #19
  br label %Abc_UtilStrsav.exit

Abc_UtilStrsav.exit:                              ; preds = %21, %22
  %27 = phi ptr [ %25, %22 ], [ null, %21 ]
  %28 = getelementptr inbounds nuw i8, ptr %20, i64 8
  store ptr %27, ptr %28, align 8, !tbaa !99
  tail call void @Abc_SclLibNormalize(ptr noundef nonnull %20) #19
  br label %.critedge

.critedge:                                        ; preds = %Vec_StrAlloc.exit, %Abc_UtilStrsav.exit
  %.not.i25 = icmp eq ptr %16, null
  br i1 %.not.i25, label %Vec_StrFree.exit, label %29

29:                                               ; preds = %.critedge
  tail call void @free(ptr noundef nonnull %16) #19
  br label %Vec_StrFree.exit

Vec_StrFree.exit:                                 ; preds = %.critedge, %29
  tail call void @free(ptr noundef nonnull %10) #19
  br label %30

30:                                               ; preds = %Vec_StrFree.exit, %4
  %.0 = phi ptr [ null, %4 ], [ %20, %Vec_StrFree.exit ]
  ret ptr %.0
}